(lp1
(i__main__
EF
p2
(dp3
S'adpu'
p4
NsS'fci'
p5
S'62278202412183026f07a50ec001009b063f007f206f07ca01808a01058b036f060380020009880138'
p6
sS'data'
p7
S'ffffffffffffffffff'
p8
sS'name'
p9
S'6F07'
p10
sS'tp'
p11
S'transparent'
p12
sba.